; ModuleID = '27/1810.c'
source_filename = "27/1810.c"
target datalayout = "e-m:e-p270:32:32-p271:32:32-p272:64:64-i64:64-f80:128-n8:16:32:64-S128"
target triple = "x86_64-pc-linux-gnu"

@.str = private unnamed_addr constant [3 x i8] c"%d\00", align 1
@.str.1 = private unnamed_addr constant [11 x i8] c"%lf%lf%lf\0A\00", align 1
@.str.2 = private unnamed_addr constant [12 x i8] c"x1=x2=%.5f\0A\00", align 1
@.str.3 = private unnamed_addr constant [17 x i8] c"x1=%.5f;x2=%.5f\0A\00", align 1
@.str.4 = private unnamed_addr constant [29 x i8] c"x1=%.5f+%.5fi;x2=%.5f-%.5fi\0A\00", align 1

; Function Attrs: noinline nounwind uwtable
define dso_local i32 @main(i32 %0, i8** %1) #0 {
  %3 = alloca i32, align 4
  %4 = alloca i32, align 4
  %5 = alloca i8**, align 8
  %6 = alloca i32, align 4
  %7 = alloca i32, align 4
  %8 = alloca [200 x double], align 16
  %9 = alloca [200 x double], align 16
  %10 = alloca [200 x double], align 16
  %11 = alloca [100 x double], align 16
  %12 = alloca [100 x double], align 16
  %13 = alloca [100 x double], align 16
  %14 = alloca [100 x double], align 16
  %15 = alloca [100 x double], align 16
  store i32 0, i32* %3, align 4
  store i32 %0, i32* %4, align 4
  store i8** %1, i8*** %5, align 8
  %16 = call i32 (i8*, ...) @__isoc99_scanf(i8* getelementptr inbounds ([3 x i8], [3 x i8]* @.str, i64 0, i64 0), i32* %6)
  store i32 0, i32* %7, align 4
  br label %17

17:                                               ; preds = %32, %2
  %18 = load i32, i32* %7, align 4
  %19 = load i32, i32* %6, align 4
  %20 = icmp slt i32 %18, %19
  br i1 %20, label %21, label %35

21:                                               ; preds = %17
  %22 = load i32, i32* %7, align 4
  %23 = sext i32 %22 to i64
  %24 = getelementptr inbounds [200 x double], [200 x double]* %8, i64 0, i64 %23
  %25 = load i32, i32* %7, align 4
  %26 = sext i32 %25 to i64
  %27 = getelementptr inbounds [200 x double], [200 x double]* %9, i64 0, i64 %26
  %28 = load i32, i32* %7, align 4
  %29 = sext i32 %28 to i64
  %30 = getelementptr inbounds [200 x double], [200 x double]* %10, i64 0, i64 %29
  %31 = call i32 (i8*, ...) @__isoc99_scanf(i8* getelementptr inbounds ([11 x i8], [11 x i8]* @.str.1, i64 0, i64 0), double* %24, double* %27, double* %30)
  br label %32

32:                                               ; preds = %21
  %33 = load i32, i32* %7, align 4
  %34 = add nsw i32 %33, 1
  store i32 %34, i32* %7, align 4
  br label %17

35:                                               ; preds = %17
  %36 = load i32, i32* %7, align 4
  %37 = sext i32 %36 to i64
  %38 = getelementptr inbounds [200 x double], [200 x double]* %9, i64 0, i64 %37
  %39 = load double, double* %38, align 8
  %40 = load i32, i32* %7, align 4
  %41 = sext i32 %40 to i64
  %42 = getelementptr inbounds [200 x double], [200 x double]* %9, i64 0, i64 %41
  %43 = load double, double* %42, align 8
  %44 = fmul double %39, %43
  %45 = load i32, i32* %7, align 4
  %46 = sext i32 %45 to i64
  %47 = getelementptr inbounds [200 x double], [200 x double]* %8, i64 0, i64 %46
  %48 = load double, double* %47, align 8
  %49 = fmul double 4.000000e+00, %48
  %50 = load i32, i32* %7, align 4
  %51 = sext i32 %50 to i64
  %52 = getelementptr inbounds [200 x double], [200 x double]* %10, i64 0, i64 %51
  %53 = load double, double* %52, align 8
  %54 = fmul double %49, %53
  %55 = fsub double %44, %54
  %56 = load i32, i32* %7, align 4
  %57 = sext i32 %56 to i64
  %58 = getelementptr inbounds [100 x double], [100 x double]* %11, i64 0, i64 %57
  store double %55, double* %58, align 8
  store i32 0, i32* %7, align 4
  br label %59

59:                                               ; preds = %239, %35
  %60 = load i32, i32* %7, align 4
  %61 = load i32, i32* %6, align 4
  %62 = icmp slt i32 %60, %61
  br i1 %62, label %63, label %242

63:                                               ; preds = %59
  %64 = load i32, i32* %7, align 4
  %65 = sext i32 %64 to i64
  %66 = getelementptr inbounds [200 x double], [200 x double]* %9, i64 0, i64 %65
  %67 = load double, double* %66, align 8
  %68 = load i32, i32* %7, align 4
  %69 = sext i32 %68 to i64
  %70 = getelementptr inbounds [200 x double], [200 x double]* %9, i64 0, i64 %69
  %71 = load double, double* %70, align 8
  %72 = fmul double %67, %71
  %73 = load i32, i32* %7, align 4
  %74 = sext i32 %73 to i64
  %75 = getelementptr inbounds [200 x double], [200 x double]* %8, i64 0, i64 %74
  %76 = load double, double* %75, align 8
  %77 = fmul double 4.000000e+00, %76
  %78 = load i32, i32* %7, align 4
  %79 = sext i32 %78 to i64
  %80 = getelementptr inbounds [200 x double], [200 x double]* %10, i64 0, i64 %79
  %81 = load double, double* %80, align 8
  %82 = fmul double %77, %81
  %83 = fsub double %72, %82
  %84 = load i32, i32* %7, align 4
  %85 = sext i32 %84 to i64
  %86 = getelementptr inbounds [100 x double], [100 x double]* %11, i64 0, i64 %85
  store double %83, double* %86, align 8
  %87 = load i32, i32* %7, align 4
  %88 = sext i32 %87 to i64
  %89 = getelementptr inbounds [100 x double], [100 x double]* %11, i64 0, i64 %88
  %90 = load double, double* %89, align 8
  %91 = call double @llvm.fabs.f64(double %90)
  %92 = fcmp ole double %91, 0x3EB0C6F7A0B5ED8D
  br i1 %92, label %93, label %106

93:                                               ; preds = %63
  %94 = load i32, i32* %7, align 4
  %95 = sext i32 %94 to i64
  %96 = getelementptr inbounds [200 x double], [200 x double]* %9, i64 0, i64 %95
  %97 = load double, double* %96, align 8
  %98 = fneg double %97
  %99 = load i32, i32* %7, align 4
  %100 = sext i32 %99 to i64
  %101 = getelementptr inbounds [200 x double], [200 x double]* %8, i64 0, i64 %100
  %102 = load double, double* %101, align 8
  %103 = fmul double 2.000000e+00, %102
  %104 = fdiv double %98, %103
  %105 = call i32 (i8*, ...) @printf(i8* getelementptr inbounds ([12 x i8], [12 x i8]* @.str.2, i64 0, i64 0), double %104)
  br label %238

106:                                              ; preds = %63
  %107 = load i32, i32* %7, align 4
  %108 = sext i32 %107 to i64
  %109 = getelementptr inbounds [100 x double], [100 x double]* %11, i64 0, i64 %108
  %110 = load double, double* %109, align 8
  %111 = fcmp ogt double %110, 0x3EB0C6F7A0B5ED8D
  br i1 %111, label %112, label %162

112:                                              ; preds = %106
  %113 = load i32, i32* %7, align 4
  %114 = sext i32 %113 to i64
  %115 = getelementptr inbounds [200 x double], [200 x double]* %9, i64 0, i64 %114
  %116 = load double, double* %115, align 8
  %117 = fneg double %116
  %118 = load i32, i32* %7, align 4
  %119 = sext i32 %118 to i64
  %120 = getelementptr inbounds [100 x double], [100 x double]* %11, i64 0, i64 %119
  %121 = load double, double* %120, align 8
  %122 = call double @sqrt(double %121) #4
  %123 = fadd double %117, %122
  %124 = load i32, i32* %7, align 4
  %125 = sext i32 %124 to i64
  %126 = getelementptr inbounds [200 x double], [200 x double]* %8, i64 0, i64 %125
  %127 = load double, double* %126, align 8
  %128 = fmul double 2.000000e+00, %127
  %129 = fdiv double %123, %128
  %130 = load i32, i32* %7, align 4
  %131 = sext i32 %130 to i64
  %132 = getelementptr inbounds [100 x double], [100 x double]* %12, i64 0, i64 %131
  store double %129, double* %132, align 8
  %133 = load i32, i32* %7, align 4
  %134 = sext i32 %133 to i64
  %135 = getelementptr inbounds [200 x double], [200 x double]* %9, i64 0, i64 %134
  %136 = load double, double* %135, align 8
  %137 = fneg double %136
  %138 = load i32, i32* %7, align 4
  %139 = sext i32 %138 to i64
  %140 = getelementptr inbounds [100 x double], [100 x double]* %11, i64 0, i64 %139
  %141 = load double, double* %140, align 8
  %142 = call double @sqrt(double %141) #4
  %143 = fsub double %137, %142
  %144 = load i32, i32* %7, align 4
  %145 = sext i32 %144 to i64
  %146 = getelementptr inbounds [200 x double], [200 x double]* %8, i64 0, i64 %145
  %147 = load double, double* %146, align 8
  %148 = fmul double 2.000000e+00, %147
  %149 = fdiv double %143, %148
  %150 = load i32, i32* %7, align 4
  %151 = sext i32 %150 to i64
  %152 = getelementptr inbounds [100 x double], [100 x double]* %13, i64 0, i64 %151
  store double %149, double* %152, align 8
  %153 = load i32, i32* %7, align 4
  %154 = sext i32 %153 to i64
  %155 = getelementptr inbounds [100 x double], [100 x double]* %12, i64 0, i64 %154
  %156 = load double, double* %155, align 8
  %157 = load i32, i32* %7, align 4
  %158 = sext i32 %157 to i64
  %159 = getelementptr inbounds [100 x double], [100 x double]* %13, i64 0, i64 %158
  %160 = load double, double* %159, align 8
  %161 = call i32 (i8*, ...) @printf(i8* getelementptr inbounds ([17 x i8], [17 x i8]* @.str.3, i64 0, i64 0), double %156, double %160)
  br label %237

162:                                              ; preds = %106
  %163 = load i32, i32* %7, align 4
  %164 = sext i32 %163 to i64
  %165 = getelementptr inbounds [200 x double], [200 x double]* %9, i64 0, i64 %164
  %166 = load double, double* %165, align 8
  %167 = fneg double %166
  %168 = load i32, i32* %7, align 4
  %169 = sext i32 %168 to i64
  %170 = getelementptr inbounds [200 x double], [200 x double]* %8, i64 0, i64 %169
  %171 = load double, double* %170, align 8
  %172 = fmul double 2.000000e+00, %171
  %173 = fdiv double %167, %172
  %174 = load i32, i32* %7, align 4
  %175 = sext i32 %174 to i64
  %176 = getelementptr inbounds [100 x double], [100 x double]* %14, i64 0, i64 %175
  store double %173, double* %176, align 8
  %177 = load i32, i32* %7, align 4
  %178 = sext i32 %177 to i64
  %179 = getelementptr inbounds [100 x double], [100 x double]* %11, i64 0, i64 %178
  %180 = load double, double* %179, align 8
  %181 = fneg double %180
  %182 = call double @sqrt(double %181) #4
  %183 = load i32, i32* %7, align 4
  %184 = sext i32 %183 to i64
  %185 = getelementptr inbounds [200 x double], [200 x double]* %8, i64 0, i64 %184
  %186 = load double, double* %185, align 8
  %187 = fmul double 2.000000e+00, %186
  %188 = fdiv double %182, %187
  %189 = load i32, i32* %7, align 4
  %190 = sext i32 %189 to i64
  %191 = getelementptr inbounds [100 x double], [100 x double]* %15, i64 0, i64 %190
  store double %188, double* %191, align 8
  %192 = load i32, i32* %7, align 4
  %193 = sext i32 %192 to i64
  %194 = getelementptr inbounds [100 x double], [100 x double]* %14, i64 0, i64 %193
  %195 = load double, double* %194, align 8
  %196 = call double @llvm.fabs.f64(double %195)
  %197 = fcmp ole double %196, 0x3EB0C6F7A0B5ED8D
  br i1 %197, label %198, label %218

198:                                              ; preds = %162
  %199 = load i32, i32* %7, align 4
  %200 = sext i32 %199 to i64
  %201 = getelementptr inbounds [100 x double], [100 x double]* %14, i64 0, i64 %200
  %202 = load double, double* %201, align 8
  %203 = fneg double %202
  %204 = load i32, i32* %7, align 4
  %205 = sext i32 %204 to i64
  %206 = getelementptr inbounds [100 x double], [100 x double]* %15, i64 0, i64 %205
  %207 = load double, double* %206, align 8
  %208 = load i32, i32* %7, align 4
  %209 = sext i32 %208 to i64
  %210 = getelementptr inbounds [100 x double], [100 x double]* %14, i64 0, i64 %209
  %211 = load double, double* %210, align 8
  %212 = fneg double %211
  %213 = load i32, i32* %7, align 4
  %214 = sext i32 %213 to i64
  %215 = getelementptr inbounds [100 x double], [100 x double]* %15, i64 0, i64 %214
  %216 = load double, double* %215, align 8
  %217 = call i32 (i8*, ...) @printf(i8* getelementptr inbounds ([29 x i8], [29 x i8]* @.str.4, i64 0, i64 0), double %203, double %207, double %212, double %216)
  br label %236

218:                                              ; preds = %162
  %219 = load i32, i32* %7, align 4
  %220 = sext i32 %219 to i64
  %221 = getelementptr inbounds [100 x double], [100 x double]* %14, i64 0, i64 %220
  %222 = load double, double* %221, align 8
  %223 = load i32, i32* %7, align 4
  %224 = sext i32 %223 to i64
  %225 = getelementptr inbounds [100 x double], [100 x double]* %15, i64 0, i64 %224
  %226 = load double, double* %225, align 8
  %227 = load i32, i32* %7, align 4
  %228 = sext i32 %227 to i64
  %229 = getelementptr inbounds [100 x double], [100 x double]* %14, i64 0, i64 %228
  %230 = load double, double* %229, align 8
  %231 = load i32, i32* %7, align 4
  %232 = sext i32 %231 to i64
  %233 = getelementptr inbounds [100 x double], [100 x double]* %15, i64 0, i64 %232
  %234 = load double, double* %233, align 8
  %235 = call i32 (i8*, ...) @printf(i8* getelementptr inbounds ([29 x i8], [29 x i8]* @.str.4, i64 0, i64 0), double %222, double %226, double %230, double %234)
  br label %236

236:                                              ; preds = %218, %198
  br label %237

237:                                              ; preds = %236, %112
  br label %238

238:                                              ; preds = %237, %93
  br label %239

239:                                              ; preds = %238
  %240 = load i32, i32* %7, align 4
  %241 = add nsw i32 %240, 1
  store i32 %241, i32* %7, align 4
  br label %59

242:                                              ; preds = %59
  ret i32 0
}

declare dso_local i32 @__isoc99_scanf(i8*, ...) #1

; Function Attrs: nounwind readnone speculatable willreturn
declare double @llvm.fabs.f64(double) #2

declare dso_local i32 @printf(i8*, ...) #1

; Function Attrs: nounwind
declare dso_local double @sqrt(double) #3


!llvm.module.flags = !{!0}
!llvm.ident = !{!1}

!0 = !{i32 1, !"wchar_size", i32 4}
!1 = !{!"clang version 10.0.0-4ubuntu1 "}
