; ModuleID = 'source-C-CXX/26/1810.c'
source_filename = "source-C-CXX/26/1810.c"
target datalayout = "e-m:e-p270:32:32-p271:32:32-p272:64:64-i64:64-f80:128-n8:16:32:64-S128"
target triple = "x86_64-pc-linux-gnu"

@.str = private unnamed_addr constant [3 x i8] c"%d\00", align 1
@.str.1 = private unnamed_addr constant [11 x i8] c"%lf%lf%lf\0A\00", align 1
@.str.2 = private unnamed_addr constant [12 x i8] c"x1=x2=%.5f\0A\00", align 1
@.str.3 = private unnamed_addr constant [17 x i8] c"x1=%.5f;x2=%.5f\0A\00", align 1
@.str.4 = private unnamed_addr constant [29 x i8] c"x1=%.5f+%.5fi;x2=%.5f-%.5fi\0A\00", align 1

; Function Attrs: nofree nounwind sspstrong uwtable
define dso_local i32 @main(i32 %0, i8** nocapture readnone %1) local_unnamed_addr #0 {
  %3 = alloca i32, align 4
  %4 = alloca [200 x double], align 16
  %5 = alloca [200 x double], align 16
  %6 = alloca [200 x double], align 16
  %7 = bitcast i32* %3 to i8*
  call void @llvm.lifetime.start.p0i8(i64 4, i8* nonnull %7) #5
  %8 = call i32 (i8*, ...) @__isoc99_scanf(i8* getelementptr inbounds ([3 x i8], [3 x i8]* @.str, i64 0, i64 0), i32* nonnull %3)
  %9 = bitcast [200 x double]* %4 to i8*
  call void @llvm.lifetime.start.p0i8(i64 1600, i8* nonnull %9) #5
  %10 = bitcast [200 x double]* %5 to i8*
  call void @llvm.lifetime.start.p0i8(i64 1600, i8* nonnull %10) #5
  %11 = bitcast [200 x double]* %6 to i8*
  call void @llvm.lifetime.start.p0i8(i64 1600, i8* nonnull %11) #5
  %12 = load i32, i32* %3, align 4, !tbaa !5
  %13 = icmp sgt i32 %12, 0
  br i1 %13, label %16, label %82

14:                                               ; preds = %16
  %15 = icmp sgt i32 %23, 0
  br i1 %15, label %26, label %82

16:                                               ; preds = %2, %16
  %17 = phi i64 [ %22, %16 ], [ 0, %2 ]
  %18 = getelementptr inbounds [200 x double], [200 x double]* %4, i64 0, i64 %17
  %19 = getelementptr inbounds [200 x double], [200 x double]* %5, i64 0, i64 %17
  %20 = getelementptr inbounds [200 x double], [200 x double]* %6, i64 0, i64 %17
  %21 = call i32 (i8*, ...) @__isoc99_scanf(i8* getelementptr inbounds ([11 x i8], [11 x i8]* @.str.1, i64 0, i64 0), double* nonnull %18, double* nonnull %19, double* nonnull %20)
  %22 = add nuw nsw i64 %17, 1
  %23 = load i32, i32* %3, align 4, !tbaa !5
  %24 = sext i32 %23 to i64
  %25 = icmp slt i64 %22, %24
  br i1 %25, label %16, label %14, !llvm.loop !9

26:                                               ; preds = %14, %77
  %27 = phi i64 [ %78, %77 ], [ 0, %14 ]
  %28 = getelementptr inbounds [200 x double], [200 x double]* %5, i64 0, i64 %27
  %29 = load double, double* %28, align 8, !tbaa !11
  %30 = fmul double %29, %29
  %31 = getelementptr inbounds [200 x double], [200 x double]* %4, i64 0, i64 %27
  %32 = load double, double* %31, align 8, !tbaa !11
  %33 = fmul double %32, 4.000000e+00
  %34 = getelementptr inbounds [200 x double], [200 x double]* %6, i64 0, i64 %27
  %35 = load double, double* %34, align 8, !tbaa !11
  %36 = fmul double %33, %35
  %37 = fsub double %30, %36
  %38 = call double @llvm.fabs.f64(double %37)
  %39 = fcmp ugt double %38, 0x3EB0C6F7A0B5ED8D
  br i1 %39, label %45, label %40

40:                                               ; preds = %26
  %41 = fneg double %29
  %42 = fmul double %32, 2.000000e+00
  %43 = fdiv double %41, %42
  %44 = call i32 (i8*, ...) @printf(i8* nonnull dereferenceable(1) getelementptr inbounds ([12 x i8], [12 x i8]* @.str.2, i64 0, i64 0), double %43)
  br label %77

45:                                               ; preds = %26
  %46 = fcmp ogt double %37, 0x3EB0C6F7A0B5ED8D
  br i1 %46, label %47, label %61

47:                                               ; preds = %45
  %48 = call double @sqrt(double %37) #5
  %49 = fsub double %48, %29
  %50 = load double, double* %31, align 8, !tbaa !11
  %51 = fmul double %50, 2.000000e+00
  %52 = fdiv double %49, %51
  %53 = load double, double* %28, align 8, !tbaa !11
  %54 = fneg double %53
  %55 = call double @sqrt(double %37) #5
  %56 = fsub double %54, %55
  %57 = load double, double* %31, align 8, !tbaa !11
  %58 = fmul double %57, 2.000000e+00
  %59 = fdiv double %56, %58
  %60 = call i32 (i8*, ...) @printf(i8* nonnull dereferenceable(1) getelementptr inbounds ([17 x i8], [17 x i8]* @.str.3, i64 0, i64 0), double %52, double %59)
  br label %77

61:                                               ; preds = %45
  %62 = fneg double %29
  %63 = fmul double %32, 2.000000e+00
  %64 = fdiv double %62, %63
  %65 = fneg double %37
  %66 = call double @sqrt(double %65) #5
  %67 = load double, double* %31, align 8, !tbaa !11
  %68 = fmul double %67, 2.000000e+00
  %69 = fdiv double %66, %68
  %70 = call double @llvm.fabs.f64(double %64)
  %71 = fcmp ugt double %70, 0x3EB0C6F7A0B5ED8D
  br i1 %71, label %75, label %72

72:                                               ; preds = %61
  %73 = fneg double %64
  %74 = call i32 (i8*, ...) @printf(i8* nonnull dereferenceable(1) getelementptr inbounds ([29 x i8], [29 x i8]* @.str.4, i64 0, i64 0), double %73, double %69, double %73, double %69)
  br label %77

75:                                               ; preds = %61
  %76 = call i32 (i8*, ...) @printf(i8* nonnull dereferenceable(1) getelementptr inbounds ([29 x i8], [29 x i8]* @.str.4, i64 0, i64 0), double %64, double %69, double %64, double %69)
  br label %77

77:                                               ; preds = %40, %72, %75, %47
  %78 = add nuw nsw i64 %27, 1
  %79 = load i32, i32* %3, align 4, !tbaa !5
  %80 = sext i32 %79 to i64
  %81 = icmp slt i64 %78, %80
  br i1 %81, label %26, label %82, !llvm.loop !13

82:                                               ; preds = %77, %2, %14
  call void @llvm.lifetime.end.p0i8(i64 1600, i8* nonnull %11) #5
  call void @llvm.lifetime.end.p0i8(i64 1600, i8* nonnull %10) #5
  call void @llvm.lifetime.end.p0i8(i64 1600, i8* nonnull %9) #5
  call void @llvm.lifetime.end.p0i8(i64 4, i8* nonnull %7) #5
  ret i32 0
}

; Function Attrs: argmemonly mustprogress nofree nosync nounwind willreturn
declare void @llvm.lifetime.start.p0i8(i64 immarg, i8* nocapture) #1

; Function Attrs: nofree nounwind
declare noundef i32 @__isoc99_scanf(i8* nocapture noundef readonly, ...) local_unnamed_addr #2

; Function Attrs: mustprogress nofree nosync nounwind readnone speculatable willreturn
declare double @llvm.fabs.f64(double) #3

; Function Attrs: nofree nounwind
declare noundef i32 @printf(i8* nocapture noundef readonly, ...) local_unnamed_addr #2

; Function Attrs: mustprogress nofree nounwind willreturn
declare double @sqrt(double) local_unnamed_addr #4

; Function Attrs: argmemonly mustprogress nofree nosync nounwind willreturn
declare void @llvm.lifetime.end.p0i8(i64 immarg, i8* nocapture) #1


!llvm.module.flags = !{!0, !1, !2, !3}
!llvm.ident = !{!4}

!0 = !{i32 1, !"wchar_size", i32 4}
!1 = !{i32 7, !"PIC Level", i32 2}
!2 = !{i32 7, !"PIE Level", i32 2}
!3 = !{i32 7, !"uwtable", i32 1}
!4 = !{!"clang version 13.0.0"}
!5 = !{!6, !6, i64 0}
!6 = !{!"int", !7, i64 0}
!7 = !{!"omnipotent char", !8, i64 0}
!8 = !{!"Simple C/C++ TBAA"}
!9 = distinct !{!9, !10}
!10 = !{!"llvm.loop.mustprogress"}
!11 = !{!12, !12, i64 0}
!12 = !{!"double", !7, i64 0}
!13 = distinct !{!13, !10}
